target datalayout = "e-m:e-p270:32:32-p271:32:32-p272:64:64-i64:64-i128:128-f80:128-n8:16:32:64-S128"
target triple = "x86_64-pc-linux-gnu"

%struct.AVCodecContext = type { ptr, i32, i32, ptr, i32, i32, ptr, ptr, ptr, i64, i32, i32, ptr, i32, %struct.AVRational, %struct.AVRational, %struct.AVRational, i32, i32, i32, i32, i32, %struct.AVRational, i32, i32, i32, i32, i32, i32, i32, i32, i32, i32, i32, ptr, ptr, i32, float, float, float, float, float, float, float, float, float, i32, i32, i32, i32, i32, i32, i32, i32, i32, i32, i32, i32, ptr, ptr, ptr, i32, i32, i32, i32, i32, i32, i32, i32, i32, i32, %struct.AVChannelLayout, i32, i32, i32, i32, i32, i32, i32, i32, ptr, i32, i32, i32, float, float, i32, i32, i32, i32, i32, ptr, i64, i64, float, float, i32, i32, ptr, ptr, i32, i32, i32, i32, i32, ptr, ptr, ptr, ptr, i32, i32, [8 x i64], i32, i32, i32, i32, i32, i32, i32, ptr, ptr, i32, i32, i32, i32, i32, i32, i32, i32, i32, i32, ptr, ptr, i32, i32, ptr, ptr, ptr, ptr, i32, i32, i64, i32, i32, i64, ptr, i64, ptr, i32, ptr, i32 }
%struct.AVRational = type { i32, i32 }
%struct.AVChannelLayout = type { i32, i32, %union.anon.0, ptr }
%union.anon.0 = type { i64 }
%struct.MobiClipContext = type { [6 x ptr], i32, i32, i32, i32, %struct.GetBitContext, ptr, i32, [2 x [64 x i32]], [32 x i8], ptr, i32, %struct.BswapDSPContext }
%struct.GetBitContext = type { ptr, ptr, i32, i32, i32 }
%struct.BswapDSPContext = type { ptr, ptr }

@mobiclip_init.init_static_once = internal global i32 0, align 4
@.str.2 = private unnamed_addr constant [33 x i8] c"width/height not multiple of 16\0A\00", align 1

; Function Attrs: cold nounwind optsize uwtable
define internal i32 @mobiclip_init(ptr noundef %0) #0 {
  %2 = alloca i32, align 4
  %3 = alloca ptr, align 8
  %4 = alloca ptr, align 8
  %5 = alloca i32, align 4
  %6 = alloca i32, align 4
  store ptr %0, ptr %3, align 8, !tbaa !4
  call void @llvm.lifetime.start.p0(i64 8, ptr %4) #11
  %7 = load ptr, ptr %3, align 8, !tbaa !4
  %8 = getelementptr inbounds nuw %struct.AVCodecContext, ptr %7, i32 0, i32 6
  %9 = load ptr, ptr %8, align 8, !tbaa !9
  store ptr %9, ptr %4, align 8, !tbaa !29
  %10 = load ptr, ptr %3, align 8, !tbaa !4
  %11 = getelementptr inbounds nuw %struct.AVCodecContext, ptr %10, i32 0, i32 18
  %12 = load i32, ptr %11, align 8, !tbaa !31
  %13 = and i32 %12, 15
  %14 = icmp ne i32 %13, 0
  br i1 %14, label %21, label %15

15:                                               ; preds = %1
  %16 = load ptr, ptr %3, align 8, !tbaa !4
  %17 = getelementptr inbounds nuw %struct.AVCodecContext, ptr %16, i32 0, i32 19
  %18 = load i32, ptr %17, align 4, !tbaa !32
  %19 = and i32 %18, 15
  %20 = icmp ne i32 %19, 0
  br i1 %20, label %21, label %23

21:                                               ; preds = %15, %1
  %22 = load ptr, ptr %3, align 8, !tbaa !4
  call void (ptr, i32, ptr, ...) @av_log(ptr noundef %22, i32 noundef 16, ptr noundef @.str.2)
  store i32 -1094995529, ptr %2, align 4
  store i32 1, ptr %5, align 4
  br label %80

23:                                               ; preds = %15
  %24 = load ptr, ptr %4, align 8, !tbaa !29
  %25 = getelementptr inbounds nuw %struct.MobiClipContext, ptr %24, i32 0, i32 12
  call void @ff_bswapdsp_init(ptr noundef %25)
  %26 = load ptr, ptr %3, align 8, !tbaa !4
  %27 = getelementptr inbounds nuw %struct.AVCodecContext, ptr %26, i32 0, i32 23
  store i32 0, ptr %27, align 8, !tbaa !33
  %28 = load ptr, ptr %3, align 8, !tbaa !4
  %29 = getelementptr inbounds nuw %struct.AVCodecContext, ptr %28, i32 0, i32 18
  %30 = load i32, ptr %29, align 8, !tbaa !31
  %31 = sdiv i32 %30, 16
  %32 = add nsw i32 %31, 3
  %33 = sext i32 %32 to i64
  %34 = call noalias ptr @av_calloc(i64 noundef %33, i64 noundef 8)
  %35 = load ptr, ptr %4, align 8, !tbaa !29
  %36 = getelementptr inbounds nuw %struct.MobiClipContext, ptr %35, i32 0, i32 10
  store ptr %34, ptr %36, align 8, !tbaa !34
  %37 = load ptr, ptr %4, align 8, !tbaa !29
  %38 = getelementptr inbounds nuw %struct.MobiClipContext, ptr %37, i32 0, i32 10
  %39 = load ptr, ptr %38, align 8, !tbaa !34
  %40 = icmp ne ptr %39, null
  br i1 %40, label %42, label %41

41:                                               ; preds = %23
  store i32 -12, ptr %2, align 4
  store i32 1, ptr %5, align 4
  br label %80

42:                                               ; preds = %23
  %43 = load ptr, ptr %3, align 8, !tbaa !4
  %44 = getelementptr inbounds nuw %struct.AVCodecContext, ptr %43, i32 0, i32 18
  %45 = load i32, ptr %44, align 8, !tbaa !31
  %46 = sdiv i32 %45, 16
  %47 = add nsw i32 %46, 3
  %48 = sext i32 %47 to i64
  %49 = mul i64 %48, 8
  %50 = trunc i64 %49 to i32
  %51 = load ptr, ptr %4, align 8, !tbaa !29
  %52 = getelementptr inbounds nuw %struct.MobiClipContext, ptr %51, i32 0, i32 11
  store i32 %50, ptr %52, align 8, !tbaa !39
  call void @llvm.lifetime.start.p0(i64 4, ptr %6) #11
  store i32 0, ptr %6, align 4, !tbaa !40
  br label %53

53:                                               ; preds = %73, %42
  %54 = load i32, ptr %6, align 4, !tbaa !40
  %55 = icmp slt i32 %54, 6
  br i1 %55, label %57, label %56

56:                                               ; preds = %53
  store i32 2, ptr %5, align 4
  br label %76

57:                                               ; preds = %53
  %58 = call ptr @av_frame_alloc()
  %59 = load ptr, ptr %4, align 8, !tbaa !29
  %60 = getelementptr inbounds nuw %struct.MobiClipContext, ptr %59, i32 0, i32 0
  %61 = load i32, ptr %6, align 4, !tbaa !40
  %62 = sext i32 %61 to i64
  %63 = getelementptr inbounds [6 x ptr], ptr %60, i64 0, i64 %62
  store ptr %58, ptr %63, align 8, !tbaa !41
  %64 = load ptr, ptr %4, align 8, !tbaa !29
  %65 = getelementptr inbounds nuw %struct.MobiClipContext, ptr %64, i32 0, i32 0
  %66 = load i32, ptr %6, align 4, !tbaa !40
  %67 = sext i32 %66 to i64
  %68 = getelementptr inbounds [6 x ptr], ptr %65, i64 0, i64 %67
  %69 = load ptr, ptr %68, align 8, !tbaa !41
  %70 = icmp ne ptr %69, null
  br i1 %70, label %72, label %71

71:                                               ; preds = %57
  store i32 -12, ptr %2, align 4
  store i32 1, ptr %5, align 4
  br label %76

72:                                               ; preds = %57
  br label %73

73:                                               ; preds = %72
  %74 = load i32, ptr %6, align 4, !tbaa !40
  %75 = add nsw i32 %74, 1
  store i32 %75, ptr %6, align 4, !tbaa !40
  br label %53, !llvm.loop !43

76:                                               ; preds = %71, %56
  call void @llvm.lifetime.end.p0(i64 4, ptr %6) #11
  %77 = load i32, ptr %5, align 4
  switch i32 %77, label %80 [
    i32 2, label %78
  ]

78:                                               ; preds = %76
  %79 = call i32 @pthread_once(ptr noundef @mobiclip_init.init_static_once, ptr noundef @mobiclip_init_static)
  store i32 0, ptr %2, align 4
  store i32 1, ptr %5, align 4
  br label %80

80:                                               ; preds = %78, %76, %41, %21
  call void @llvm.lifetime.end.p0(i64 8, ptr %4) #11
  %81 = load i32, ptr %2, align 4
  ret i32 %81
}