; Function Attrs: cold nounwind optsize uwtable
define internal range(i32 -1094995529, 1) i32 @mobiclip_init(ptr noundef %0) #0 {
  %2 = getelementptr inbounds nuw i8, ptr %0, i64 32
  %3 = load ptr, ptr %2, align 8, !tbaa !4
  %4 = getelementptr inbounds nuw i8, ptr %0, i64 112
  %5 = load i32, ptr %4, align 8, !tbaa !27
  %6 = and i32 %5, 15
  %.not = icmp eq i32 %6, 0
  br i1 %.not, label %7, label %11

7:                                                ; preds = %1
  %8 = getelementptr inbounds nuw i8, ptr %0, i64 116
  %9 = load i32, ptr %8, align 4, !tbaa !28
  %10 = and i32 %9, 15
  %.not20 = icmp eq i32 %10, 0
  br i1 %.not20, label %12, label %11

11:                                               ; preds = %7, %1
  tail call void (ptr, i32, ptr, ...) @av_log(ptr noundef nonnull %0, i32 noundef 16, ptr noundef nonnull @.str.2) #11
  br label %.loopexit

12:                                               ; preds = %7
  %13 = getelementptr inbounds nuw i8, ptr %3, i64 672
  tail call void @ff_bswapdsp_init(ptr noundef nonnull %13) #11
  %14 = getelementptr inbounds nuw i8, ptr %0, i64 136
  store i32 0, ptr %14, align 8, !tbaa !29
  %15 = load i32, ptr %4, align 8, !tbaa !27
  %16 = sdiv i32 %15, 16
  %17 = add nsw i32 %16, 3
  %18 = sext i32 %17 to i64
  %19 = tail call noalias ptr @av_calloc(i64 noundef %18, i64 noundef 8) #11
  %20 = getelementptr inbounds nuw i8, ptr %3, i64 656
  store ptr %19, ptr %20, align 8, !tbaa !30
  %.not21 = icmp eq ptr %19, null
  br i1 %.not21, label %.loopexit, label %21

21:                                               ; preds = %12
  %22 = load i32, ptr %4, align 8, !tbaa !27
  %23 = sdiv i32 %22, 16
  %24 = shl nsw i32 %23, 3
  %25 = add nsw i32 %24, 24
  %26 = getelementptr inbounds nuw i8, ptr %3, i64 664
  store i32 %25, ptr %26, align 8, !tbaa !35
  br label %28

27:                                               ; preds = %28
  %indvars.iv.next = add nuw nsw i64 %indvars.iv, 1
  %exitcond = icmp eq i64 %indvars.iv.next, 6
  br i1 %exitcond, label %.critedge, label %28, !llvm.loop !36

28:                                               ; preds = %21, %27
  %indvars.iv = phi i64 [ 0, %21 ], [ %indvars.iv.next, %27 ]
  %29 = tail call ptr @av_frame_alloc() #11
  %30 = getelementptr inbounds nuw [6 x ptr], ptr %3, i64 0, i64 %indvars.iv
  store ptr %29, ptr %30, align 8, !tbaa !38
  %.not22 = icmp eq ptr %29, null
  br i1 %.not22, label %.loopexit, label %27

.critedge:                                        ; preds = %27
  %31 = tail call i32 @pthread_once(ptr noundef nonnull @mobiclip_init.init_static_once, ptr noundef nonnull @mobiclip_init_static) #11
  br label %.loopexit

.loopexit:                                        ; preds = %28, %12, %.critedge, %11
  %.019 = phi i32 [ -1094995529, %11 ], [ 0, %.critedge ], [ -12, %12 ], [ -12, %28 ]
  ret i32 %.019
}